target datalayout = "e-m:e-p270:32:32-p271:32:32-p272:64:64-i64:64-i128:128-f80:128-n8:16:32:64-S128"
target triple = "x86_64-pc-linux-gnu"

%struct._zval_struct = type { %union._zend_value, %union.anon, %union.anon.2 }
%union._zend_value = type { i64 }
%union.anon = type { i32 }
%union.anon.2 = type { i32 }
%struct._user_config_cache_entry = type { i64, ptr }

; Function Attrs: nounwind uwtable
define internal void @user_config_cache_entry_dtor(ptr noundef %0) #0 {
  %2 = alloca ptr, align 8
  %3 = alloca ptr, align 8
  store ptr %0, ptr %2, align 8, !tbaa !9
  call void @llvm.lifetime.start.p0(i64 8, ptr %3) #20
  %4 = load ptr, ptr %2, align 8, !tbaa !9
  %5 = getelementptr inbounds nuw %struct._zval_struct, ptr %4, i32 0, i32 0
  %6 = load ptr, ptr %5, align 8, !tbaa !11
  store ptr %6, ptr %3, align 8, !tbaa !163
  %7 = load ptr, ptr %3, align 8, !tbaa !163
  %8 = getelementptr inbounds nuw %struct._user_config_cache_entry, ptr %7, i32 0, i32 1
  %9 = load ptr, ptr %8, align 8, !tbaa !165
  call void @zend_hash_destroy(ptr noundef %9)
  %10 = load ptr, ptr %3, align 8, !tbaa !163
  %11 = getelementptr inbounds nuw %struct._user_config_cache_entry, ptr %10, i32 0, i32 1
  %12 = load ptr, ptr %11, align 8, !tbaa !165
  call void @free(ptr noundef %12) #20
  %13 = load ptr, ptr %3, align 8, !tbaa !163
  call void @free(ptr noundef %13) #20
  call void @llvm.lifetime.end.p0(i64 8, ptr %3) #20
  ret void
}