; Function Attrs: nounwind uwtable
define internal void @user_config_cache_entry_dtor(ptr noundef readonly captures(none) %0) #0 {
  %2 = load ptr, ptr %0, align 8, !tbaa !4
  %3 = getelementptr inbounds nuw i8, ptr %2, i64 8
  %4 = load ptr, ptr %3, align 8, !tbaa !150
  tail call void @zend_hash_destroy(ptr noundef %4) #29
  %5 = load ptr, ptr %3, align 8, !tbaa !150
  tail call void @free(ptr noundef %5) #29
  tail call void @free(ptr noundef %2) #29
  ret void
}